; Function Attrs: mustprogress nofree norecurse nosync nounwind willreturn memory(read, argmem: readwrite, inaccessiblemem: none) uwtable
define void @_ZNK11OpenImageIO6v3_1_08DeepData11channelnameEi(ptr dead_on_unwind noalias writable writeonly sret(%"class.OpenImageIO::v3_1_0::basic_string_view") align 8 captures(none) initializes((0, 16)) %0, ptr noundef nonnull readonly align 8 captures(none) dereferenceable(20) %1, i32 noundef %2) local_unnamed_addr #14 align 2 {
  %4 = icmp sgt i32 %2, -1
  %5 = getelementptr inbounds nuw i8, ptr %1, i64 16
  %6 = load i32, ptr %5, align 8
  %7 = icmp slt i32 %2, %6
  %or.cond = select i1 %4, i1 %7, i1 false
  br i1 %or.cond, label %8, label %18

8:                                                ; preds = %3
  %9 = load ptr, ptr %1, align 8, !tbaa !35
  %10 = getelementptr inbounds nuw i8, ptr %9, i64 168
  %11 = zext nneg i32 %2 to i64
  %12 = load ptr, ptr %10, align 8, !tbaa !29
  %13 = getelementptr inbounds nuw %"class.std::__cxx11::basic_string", ptr %12, i64 %11
  %14 = load ptr, ptr %13, align 8, !tbaa !42
  store ptr %14, ptr %0, align 8, !tbaa !98
  %15 = getelementptr inbounds nuw i8, ptr %0, i64 8
  %16 = getelementptr inbounds nuw i8, ptr %13, i64 8
  %17 = load i64, ptr %16, align 8, !tbaa !46
  store i64 %17, ptr %15, align 8, !tbaa !100
  br label %19

18:                                               ; preds = %3
  tail call void @llvm.memset.p0.i64(ptr noundef nonnull align 8 dereferenceable(16) %0, i8 0, i64 16, i1 false)
  br label %19

19:                                               ; preds = %18, %8
  ret void
}